; Function Attrs: inlinehint nofree nounwind memory(read, inaccessiblemem: none) uwtable
define internal fastcc zeroext i1 @pmix_cmd_line_is_taken(ptr noundef nonnull readonly captures(address) %0, ptr noundef readonly captures(none) %1) unnamed_addr #9 {
  %3 = getelementptr inbounds nuw i8, ptr %0, i64 240
  %4 = getelementptr inbounds nuw i8, ptr %0, i64 360
  %.09.i = load ptr, ptr %4, align 8, !tbaa !35
  %.not10.i = icmp eq ptr %.09.i, %3
  br i1 %.not10.i, label %pmix_cmd_line_get_param.exit, label %.lr.ph.i

.lr.ph.i:                                         ; preds = %2, %9
  %.011.i = phi ptr [ %.0.i, %9 ], [ %.09.i, %2 ]
  %5 = getelementptr inbounds nuw i8, ptr %.011.i, i64 144
  %6 = load ptr, ptr %5, align 8, !tbaa !31
  %7 = tail call i32 @strcmp(ptr noundef nonnull dereferenceable(1) %6, ptr noundef nonnull readonly dereferenceable(1) %1) #19
  %8 = icmp eq i32 %7, 0
  br i1 %8, label %pmix_cmd_line_get_param.exit.loopexit, label %9

9:                                                ; preds = %.lr.ph.i
  %10 = getelementptr inbounds nuw i8, ptr %.011.i, i64 120
  %.0.i = load ptr, ptr %10, align 8, !tbaa !35
  %.not.i = icmp eq ptr %.0.i, %3
  br i1 %.not.i, label %pmix_cmd_line_get_param.exit.loopexit, label %.lr.ph.i, !llvm.loop !37

pmix_cmd_line_get_param.exit.loopexit:            ; preds = %9, %.lr.ph.i
  %.08.i.ph = phi ptr [ null, %9 ], [ %.011.i, %.lr.ph.i ]
  %11 = icmp ne ptr %.08.i.ph, null
  br label %pmix_cmd_line_get_param.exit

pmix_cmd_line_get_param.exit:                     ; preds = %pmix_cmd_line_get_param.exit.loopexit, %2
  %.08.i = phi i1 [ false, %2 ], [ %11, %pmix_cmd_line_get_param.exit.loopexit ]
  ret i1 %.08.i
}